target datalayout = "e-m:e-p270:32:32-p271:32:32-p272:64:64-i64:64-i128:128-f80:128-n8:16:32:64-S128"
target triple = "x86_64-pc-linux-gnu"

%struct.X509_name_st = type { ptr, i32, ptr, ptr, i32 }
%struct.buf_mem_st = type { i64, ptr, i64, i64 }
%union.anon = type { ptr }
%union.anon.0 = type { ptr }
%struct.X509_name_entry_st = type { ptr, ptr, i32, i32 }

@X509_NAME_it.local_it = internal constant { i8, [7 x i8], i64, ptr, i64, ptr, i64, ptr } { i8 4, [7 x i8] zeroinitializer, i64 16, ptr null, i64 0, ptr @x509_name_ff, i64 0, ptr @.str.1 }, align 8
@.str.2 = private unnamed_addr constant [32 x i8] c"../openssl/crypto/x509/x_name.c\00", align 1
@__func__.x509_name_ex_d2i = private unnamed_addr constant [17 x i8] c"x509_name_ex_d2i\00", align 1
@X509_NAME_INTERNAL_it.local_it = internal constant { i8, [7 x i8], i64, ptr, i64, ptr, i64, ptr } { i8 0, [7 x i8] zeroinitializer, i64 -1, ptr @X509_NAME_INTERNAL_item_tt, i64 0, ptr null, i64 0, ptr @.str.6 }, align 8

; Function Attrs: nounwind uwtable
define ptr @X509_NAME_it() #0 {
  ret ptr @X509_NAME_it.local_it
}

; Function Attrs: inlinehint nounwind uwtable
define internal ptr @ossl_check_X509_NAME_ENTRY_freefunc_type(ptr noundef %0) #3 {
  %2 = alloca ptr, align 8
  store ptr %0, ptr %2, align 8, !tbaa !57
  %3 = load ptr, ptr %2, align 8, !tbaa !57
  ret ptr %3
}

; Function Attrs: nounwind uwtable
define void @X509_NAME_free(ptr noundef %0) #0 {
  %2 = alloca ptr, align 8
  store ptr %0, ptr %2, align 8, !tbaa !16
  %3 = load ptr, ptr %2, align 8, !tbaa !16
  %4 = call ptr @X509_NAME_it()
  call void @ASN1_item_free(ptr noundef %3, ptr noundef %4)
  ret void
}

; Function Attrs: inlinehint nounwind uwtable
define internal void @sk_STACK_OF_X509_NAME_ENTRY_pop_free(ptr noundef %0, ptr noundef %1) #3 {
  %3 = alloca ptr, align 8
  %4 = alloca ptr, align 8
  store ptr %0, ptr %3, align 8, !tbaa !58
  store ptr %1, ptr %4, align 8, !tbaa !57
  %5 = load ptr, ptr %3, align 8, !tbaa !58
  %6 = load ptr, ptr %4, align 8, !tbaa !57
  call void @OPENSSL_sk_pop_free(ptr noundef %5, ptr noundef %6)
  ret void
}

; Function Attrs: inlinehint nounwind uwtable
define internal ptr @ossl_check_X509_NAME_ENTRY_type(ptr noundef %0) #3 {
  %2 = alloca ptr, align 8
  store ptr %0, ptr %2, align 8, !tbaa !12
  %3 = load ptr, ptr %2, align 8, !tbaa !12
  ret ptr %3
}

; Function Attrs: inlinehint nounwind uwtable
define internal ptr @ossl_check_X509_NAME_ENTRY_sk_type(ptr noundef %0) #3 {
  %2 = alloca ptr, align 8
  store ptr %0, ptr %2, align 8, !tbaa !45
  %3 = load ptr, ptr %2, align 8, !tbaa !45
  ret ptr %3
}

; Function Attrs: inlinehint nounwind uwtable
define internal ptr @ossl_check_const_X509_NAME_ENTRY_sk_type(ptr noundef %0) #3 {
  %2 = alloca ptr, align 8
  store ptr %0, ptr %2, align 8, !tbaa !45
  %3 = load ptr, ptr %2, align 8, !tbaa !45
  ret ptr %3
}

; Function Attrs: inlinehint nounwind uwtable
define internal ptr @sk_STACK_OF_X509_NAME_ENTRY_value(ptr noundef %0, i32 noundef %1) #3 {
  %3 = alloca ptr, align 8
  %4 = alloca i32, align 4
  store ptr %0, ptr %3, align 8, !tbaa !58
  store i32 %1, ptr %4, align 4, !tbaa !20
  %5 = load ptr, ptr %3, align 8, !tbaa !58
  %6 = load i32, ptr %4, align 4, !tbaa !20
  %7 = call ptr @OPENSSL_sk_value(ptr noundef %5, i32 noundef %6)
  ret ptr %7
}

; Function Attrs: inlinehint nounwind uwtable
define internal i32 @sk_STACK_OF_X509_NAME_ENTRY_num(ptr noundef %0) #3 {
  %2 = alloca ptr, align 8
  store ptr %0, ptr %2, align 8, !tbaa !58
  %3 = load ptr, ptr %2, align 8, !tbaa !58
  %4 = call i32 @OPENSSL_sk_num(ptr noundef %3)
  ret i32 %4
}

; Function Attrs: nounwind uwtable
define internal void @x509_name_ex_free(ptr noundef %0, ptr noundef %1) #0 {
  %3 = alloca ptr, align 8
  %4 = alloca ptr, align 8
  %5 = alloca ptr, align 8
  %6 = alloca i32, align 4
  store ptr %0, ptr %3, align 8, !tbaa !34
  store ptr %1, ptr %4, align 8, !tbaa !36
  call void @llvm.lifetime.start.p0(i64 8, ptr %5) #6
  %7 = load ptr, ptr %3, align 8, !tbaa !34
  %8 = icmp eq ptr %7, null
  br i1 %8, label %13, label %9

9:                                                ; preds = %2
  %10 = load ptr, ptr %3, align 8, !tbaa !34
  %11 = load ptr, ptr %10, align 8, !tbaa !40
  %12 = icmp eq ptr %11, null
  br i1 %12, label %13, label %14

13:                                               ; preds = %9, %2
  store i32 1, ptr %6, align 4
  br label %30

14:                                               ; preds = %9
  %15 = load ptr, ptr %3, align 8, !tbaa !34
  %16 = load ptr, ptr %15, align 8, !tbaa !40
  store ptr %16, ptr %5, align 8, !tbaa !16
  %17 = load ptr, ptr %5, align 8, !tbaa !16
  %18 = getelementptr inbounds nuw %struct.X509_name_st, ptr %17, i32 0, i32 2
  %19 = load ptr, ptr %18, align 8, !tbaa !27
  call void @BUF_MEM_free(ptr noundef %19)
  %20 = load ptr, ptr %5, align 8, !tbaa !16
  %21 = getelementptr inbounds nuw %struct.X509_name_st, ptr %20, i32 0, i32 0
  %22 = load ptr, ptr %21, align 8, !tbaa !38
  %23 = call ptr @ossl_check_X509_NAME_ENTRY_sk_type(ptr noundef %22)
  %24 = call ptr @ossl_check_X509_NAME_ENTRY_freefunc_type(ptr noundef @X509_NAME_ENTRY_free)
  call void @OPENSSL_sk_pop_free(ptr noundef %23, ptr noundef %24)
  %25 = load ptr, ptr %5, align 8, !tbaa !16
  %26 = getelementptr inbounds nuw %struct.X509_name_st, ptr %25, i32 0, i32 3
  %27 = load ptr, ptr %26, align 8, !tbaa !42
  call void @CRYPTO_free(ptr noundef %27, ptr noundef @.str.2, i32 noundef 126)
  %28 = load ptr, ptr %5, align 8, !tbaa !16
  call void @CRYPTO_free(ptr noundef %28, ptr noundef @.str.2, i32 noundef 127)
  %29 = load ptr, ptr %3, align 8, !tbaa !34
  store ptr null, ptr %29, align 8, !tbaa !40
  store i32 0, ptr %6, align 4
  br label %30

30:                                               ; preds = %14, %13
  call void @llvm.lifetime.end.p0(i64 8, ptr %5) #6
  %31 = load i32, ptr %6, align 4
  switch i32 %31, label %33 [
    i32 0, label %32
    i32 1, label %32
  ]

32:                                               ; preds = %30, %30
  ret void

33:                                               ; preds = %30
  unreachable
}

; Function Attrs: nounwind uwtable
define internal ptr @X509_NAME_INTERNAL_it() #0 {
  ret ptr @X509_NAME_INTERNAL_it.local_it
}

; Function Attrs: nounwind uwtable
define internal i32 @x509_name_ex_d2i(ptr noundef %0, ptr noundef %1, i64 noundef %2, ptr noundef %3, i32 noundef %4, i32 noundef %5, i8 noundef signext %6, ptr noundef %7) #0 {
  %9 = alloca i32, align 4
  %10 = alloca ptr, align 8
  %11 = alloca ptr, align 8
  %12 = alloca i64, align 8
  %13 = alloca ptr, align 8
  %14 = alloca i32, align 4
  %15 = alloca i32, align 4
  %16 = alloca i8, align 1
  %17 = alloca ptr, align 8
  %18 = alloca ptr, align 8
  %19 = alloca ptr, align 8
  %20 = alloca %union.anon, align 8
  %21 = alloca %union.anon.0, align 8
  %22 = alloca i32, align 4
  %23 = alloca i32, align 4
  %24 = alloca i32, align 4
  %25 = alloca ptr, align 8
  %26 = alloca ptr, align 8
  %27 = alloca i32, align 4
  store ptr %0, ptr %10, align 8, !tbaa !34
  store ptr %1, ptr %11, align 8, !tbaa !8
  store i64 %2, ptr %12, align 8, !tbaa !10
  store ptr %3, ptr %13, align 8, !tbaa !36
  store i32 %4, ptr %14, align 4, !tbaa !20
  store i32 %5, ptr %15, align 4, !tbaa !20
  store i8 %6, ptr %16, align 1, !tbaa !24
  store ptr %7, ptr %17, align 8, !tbaa !43
  call void @llvm.lifetime.start.p0(i64 8, ptr %18) #6
  %28 = load ptr, ptr %11, align 8, !tbaa !8
  %29 = load ptr, ptr %28, align 8, !tbaa !22
  store ptr %29, ptr %18, align 8, !tbaa !22
  call void @llvm.lifetime.start.p0(i64 8, ptr %19) #6
  call void @llvm.lifetime.start.p0(i64 8, ptr %20) #6
  call void @llvm.memset.p0.i64(ptr align 8 %20, i8 0, i64 8, i1 false)
  call void @llvm.lifetime.start.p0(i64 8, ptr %21) #6
  call void @llvm.memset.p0.i64(ptr align 8 %21, i8 0, i64 8, i1 false)
  call void @llvm.lifetime.start.p0(i64 4, ptr %22) #6
  call void @llvm.lifetime.start.p0(i64 4, ptr %23) #6
  call void @llvm.lifetime.start.p0(i64 4, ptr %24) #6
  call void @llvm.lifetime.start.p0(i64 8, ptr %25) #6
  call void @llvm.lifetime.start.p0(i64 8, ptr %26) #6
  %30 = load i64, ptr %12, align 8, !tbaa !10
  %31 = icmp sgt i64 %30, 1048576
  br i1 %31, label %32, label %33

32:                                               ; preds = %8
  store i64 1048576, ptr %12, align 8, !tbaa !10
  br label %33

33:                                               ; preds = %32, %8
  %34 = load ptr, ptr %18, align 8, !tbaa !22
  store ptr %34, ptr %19, align 8, !tbaa !22
  %35 = load i64, ptr %12, align 8, !tbaa !10
  %36 = call ptr @X509_NAME_INTERNAL_it()
  %37 = load i32, ptr %14, align 4, !tbaa !20
  %38 = load i32, ptr %15, align 4, !tbaa !20
  %39 = load i8, ptr %16, align 1, !tbaa !24
  %40 = load ptr, ptr %17, align 8, !tbaa !43
  %41 = call i32 @ASN1_item_ex_d2i(ptr noundef %20, ptr noundef %18, i64 noundef %35, ptr noundef %36, i32 noundef %37, i32 noundef %38, i8 noundef signext %39, ptr noundef %40)
  store i32 %41, ptr %24, align 4, !tbaa !20
  %42 = load i32, ptr %24, align 4, !tbaa !20
  %43 = icmp sle i32 %42, 0
  br i1 %43, label %44, label %46

44:                                               ; preds = %33
  %45 = load i32, ptr %24, align 4, !tbaa !20
  store i32 %45, ptr %9, align 4
  store i32 1, ptr %27, align 4
  br label %147

46:                                               ; preds = %33
  %47 = load ptr, ptr %10, align 8, !tbaa !34
  %48 = load ptr, ptr %47, align 8, !tbaa !40
  %49 = icmp ne ptr %48, null
  br i1 %49, label %50, label %52

50:                                               ; preds = %46
  %51 = load ptr, ptr %10, align 8, !tbaa !34
  call void @x509_name_ex_free(ptr noundef %51, ptr noundef null)
  br label %52

52:                                               ; preds = %50, %46
  %53 = call i32 @x509_name_ex_new(ptr noundef %21, ptr noundef null)
  %54 = icmp ne i32 %53, 0
  br i1 %54, label %56, label %55

55:                                               ; preds = %52
  br label %140

56:                                               ; preds = %52
  %57 = load ptr, ptr %21, align 8, !tbaa !24
  %58 = getelementptr inbounds nuw %struct.X509_name_st, ptr %57, i32 0, i32 2
  %59 = load ptr, ptr %58, align 8, !tbaa !27
  %60 = load ptr, ptr %18, align 8, !tbaa !22
  %61 = load ptr, ptr %19, align 8, !tbaa !22
  %62 = ptrtoint ptr %60 to i64
  %63 = ptrtoint ptr %61 to i64
  %64 = sub i64 %62, %63
  %65 = call i64 @BUF_MEM_grow(ptr noundef %59, i64 noundef %64)
  %66 = icmp ne i64 %65, 0
  br i1 %66, label %68, label %67

67:                                               ; preds = %56
  br label %140

68:                                               ; preds = %56
  %69 = load ptr, ptr %21, align 8, !tbaa !24
  %70 = getelementptr inbounds nuw %struct.X509_name_st, ptr %69, i32 0, i32 2
  %71 = load ptr, ptr %70, align 8, !tbaa !27
  %72 = getelementptr inbounds nuw %struct.buf_mem_st, ptr %71, i32 0, i32 1
  %73 = load ptr, ptr %72, align 8, !tbaa !31
  %74 = load ptr, ptr %19, align 8, !tbaa !22
  %75 = load ptr, ptr %18, align 8, !tbaa !22
  %76 = load ptr, ptr %19, align 8, !tbaa !22
  %77 = ptrtoint ptr %75 to i64
  %78 = ptrtoint ptr %76 to i64
  %79 = sub i64 %77, %78
  call void @llvm.memcpy.p0.p0.i64(ptr align 1 %73, ptr align 1 %74, i64 %79, i1 false)
  store i32 0, ptr %22, align 4, !tbaa !20
  br label %80

80:                                               ; preds = %122, %68
  %81 = load i32, ptr %22, align 4, !tbaa !20
  %82 = load ptr, ptr %20, align 8, !tbaa !24
  %83 = call i32 @sk_STACK_OF_X509_NAME_ENTRY_num(ptr noundef %82)
  %84 = icmp slt i32 %81, %83
  br i1 %84, label %85, label %125

85:                                               ; preds = %80
  %86 = load ptr, ptr %20, align 8, !tbaa !24
  %87 = load i32, ptr %22, align 4, !tbaa !20
  %88 = call ptr @sk_STACK_OF_X509_NAME_ENTRY_value(ptr noundef %86, i32 noundef %87)
  store ptr %88, ptr %25, align 8, !tbaa !45
  store i32 0, ptr %23, align 4, !tbaa !20
  br label %89

89:                                               ; preds = %118, %85
  %90 = load i32, ptr %23, align 4, !tbaa !20
  %91 = load ptr, ptr %25, align 8, !tbaa !45
  %92 = call ptr @ossl_check_const_X509_NAME_ENTRY_sk_type(ptr noundef %91)
  %93 = call i32 @OPENSSL_sk_num(ptr noundef %92)
  %94 = icmp slt i32 %90, %93
  br i1 %94, label %95, label %121

95:                                               ; preds = %89
  %96 = load ptr, ptr %25, align 8, !tbaa !45
  %97 = call ptr @ossl_check_const_X509_NAME_ENTRY_sk_type(ptr noundef %96)
  %98 = load i32, ptr %23, align 4, !tbaa !20
  %99 = call ptr @OPENSSL_sk_value(ptr noundef %97, i32 noundef %98)
  store ptr %99, ptr %26, align 8, !tbaa !12
  %100 = load i32, ptr %22, align 4, !tbaa !20
  %101 = load ptr, ptr %26, align 8, !tbaa !12
  %102 = getelementptr inbounds nuw %struct.X509_name_entry_st, ptr %101, i32 0, i32 2
  store i32 %100, ptr %102, align 8, !tbaa !46
  %103 = load ptr, ptr %21, align 8, !tbaa !24
  %104 = getelementptr inbounds nuw %struct.X509_name_st, ptr %103, i32 0, i32 0
  %105 = load ptr, ptr %104, align 8, !tbaa !38
  %106 = call ptr @ossl_check_X509_NAME_ENTRY_sk_type(ptr noundef %105)
  %107 = load ptr, ptr %26, align 8, !tbaa !12
  %108 = call ptr @ossl_check_X509_NAME_ENTRY_type(ptr noundef %107)
  %109 = call i32 @OPENSSL_sk_push(ptr noundef %106, ptr noundef %108)
  %110 = icmp ne i32 %109, 0
  br i1 %110, label %112, label %111

111:                                              ; preds = %95
  br label %140

112:                                              ; preds = %95
  %113 = load ptr, ptr %25, align 8, !tbaa !45
  %114 = call ptr @ossl_check_X509_NAME_ENTRY_sk_type(ptr noundef %113)
  %115 = load i32, ptr %23, align 4, !tbaa !20
  %116 = call ptr @ossl_check_X509_NAME_ENTRY_type(ptr noundef null)
  %117 = call ptr @OPENSSL_sk_set(ptr noundef %114, i32 noundef %115, ptr noundef %116)
  br label %118

118:                                              ; preds = %112
  %119 = load i32, ptr %23, align 4, !tbaa !20
  %120 = add nsw i32 %119, 1
  store i32 %120, ptr %23, align 4, !tbaa !20
  br label %89, !llvm.loop !50

121:                                              ; preds = %89
  br label %122

122:                                              ; preds = %121
  %123 = load i32, ptr %22, align 4, !tbaa !20
  %124 = add nsw i32 %123, 1
  store i32 %124, ptr %22, align 4, !tbaa !20
  br label %80, !llvm.loop !52

125:                                              ; preds = %80
  %126 = load ptr, ptr %21, align 8, !tbaa !24
  %127 = call i32 @x509_name_canon(ptr noundef %126)
  store i32 %127, ptr %24, align 4, !tbaa !20
  %128 = load i32, ptr %24, align 4, !tbaa !20
  %129 = icmp ne i32 %128, 0
  br i1 %129, label %131, label %130

130:                                              ; preds = %125
  br label %140

131:                                              ; preds = %125
  %132 = load ptr, ptr %20, align 8, !tbaa !24
  call void @sk_STACK_OF_X509_NAME_ENTRY_pop_free(ptr noundef %132, ptr noundef @local_sk_X509_NAME_ENTRY_free)
  %133 = load ptr, ptr %21, align 8, !tbaa !24
  %134 = getelementptr inbounds nuw %struct.X509_name_st, ptr %133, i32 0, i32 1
  store i32 0, ptr %134, align 8, !tbaa !39
  %135 = load ptr, ptr %21, align 8, !tbaa !24
  %136 = load ptr, ptr %10, align 8, !tbaa !34
  store ptr %135, ptr %136, align 8, !tbaa !40
  %137 = load ptr, ptr %18, align 8, !tbaa !22
  %138 = load ptr, ptr %11, align 8, !tbaa !8
  store ptr %137, ptr %138, align 8, !tbaa !22
  %139 = load i32, ptr %24, align 4, !tbaa !20
  store i32 %139, ptr %9, align 4
  store i32 1, ptr %27, align 4
  br label %147

140:                                              ; preds = %130, %111, %67, %55
  %141 = load ptr, ptr %21, align 8, !tbaa !24
  %142 = icmp ne ptr %141, null
  br i1 %142, label %143, label %145

143:                                              ; preds = %140
  %144 = load ptr, ptr %21, align 8, !tbaa !24
  call void @X509_NAME_free(ptr noundef %144)
  br label %145

145:                                              ; preds = %143, %140
  %146 = load ptr, ptr %20, align 8, !tbaa !24
  call void @sk_STACK_OF_X509_NAME_ENTRY_pop_free(ptr noundef %146, ptr noundef @local_sk_X509_NAME_ENTRY_pop_free)
  call void @ERR_new()
  call void @ERR_set_debug(ptr noundef @.str.2, i32 noundef 210, ptr noundef @__func__.x509_name_ex_d2i)
  call void (i32, i32, ptr, ...) @ERR_set_error(i32 noundef 13, i32 noundef 524554, ptr noundef null)
  store i32 0, ptr %9, align 4
  store i32 1, ptr %27, align 4
  br label %147

147:                                              ; preds = %145, %131, %44
  call void @llvm.lifetime.end.p0(i64 8, ptr %26) #6
  call void @llvm.lifetime.end.p0(i64 8, ptr %25) #6
  call void @llvm.lifetime.end.p0(i64 4, ptr %24) #6
  call void @llvm.lifetime.end.p0(i64 4, ptr %23) #6
  call void @llvm.lifetime.end.p0(i64 4, ptr %22) #6
  call void @llvm.lifetime.end.p0(i64 8, ptr %21) #6
  call void @llvm.lifetime.end.p0(i64 8, ptr %20) #6
  call void @llvm.lifetime.end.p0(i64 8, ptr %19) #6
  call void @llvm.lifetime.end.p0(i64 8, ptr %18) #6
  %148 = load i32, ptr %9, align 4
  ret i32 %148
}