; Function Attrs: nounwind uwtable
define internal range(i32 -2147483648, 2) i32 @x509_name_ex_d2i(ptr noundef captures(none) %0, ptr noundef captures(none) %1, i64 noundef %2, ptr readnone captures(none) %3, i32 noundef %4, i32 noundef %5, i8 noundef signext %6, ptr noundef %7) #1 {
  %9 = alloca ptr, align 8
  %10 = alloca %union.anon, align 8
  %11 = alloca %union.anon.0, align 8
  call void @llvm.lifetime.start.p0(i64 8, ptr nonnull %9) #6
  %12 = load ptr, ptr %1, align 8, !tbaa !18
  store ptr %12, ptr %9, align 8, !tbaa !18
  call void @llvm.lifetime.start.p0(i64 8, ptr nonnull %10) #6
  store i64 0, ptr %10, align 8
  call void @llvm.lifetime.start.p0(i64 8, ptr nonnull %11) #6
  store i64 0, ptr %11, align 8
  %spec.store.select = tail call i64 @llvm.smin.i64(i64 %2, i64 1048576)
  %13 = call i32 @ASN1_item_ex_d2i(ptr noundef nonnull %10, ptr noundef nonnull %9, i64 noundef %spec.store.select, ptr noundef nonnull @X509_NAME_INTERNAL_it.local_it, i32 noundef %4, i32 noundef %5, i8 noundef signext %6, ptr noundef %7) #6
  %14 = icmp slt i32 %13, 1
  br i1 %14, label %66, label %15

15:                                               ; preds = %8
  %16 = load ptr, ptr %0, align 8, !tbaa !23
  %.not = icmp eq ptr %16, null
  br i1 %.not, label %22, label %x509_name_ex_free.exit

x509_name_ex_free.exit:                           ; preds = %15
  %17 = getelementptr inbounds nuw i8, ptr %16, i64 16
  %18 = load ptr, ptr %17, align 8, !tbaa !9
  call void @BUF_MEM_free(ptr noundef %18) #6
  %19 = load ptr, ptr %16, align 8, !tbaa !21
  call void @OPENSSL_sk_pop_free(ptr noundef %19, ptr noundef nonnull @X509_NAME_ENTRY_free) #6
  %20 = getelementptr inbounds nuw i8, ptr %16, i64 24
  %21 = load ptr, ptr %20, align 8, !tbaa !25
  call void @CRYPTO_free(ptr noundef %21, ptr noundef nonnull @.str.2, i32 noundef 126) #6
  call void @CRYPTO_free(ptr noundef nonnull %16, ptr noundef nonnull @.str.2, i32 noundef 127) #6
  store ptr null, ptr %0, align 8, !tbaa !23
  br label %22

22:                                               ; preds = %x509_name_ex_free.exit, %15
  %23 = call i32 @x509_name_ex_new(ptr noundef nonnull %11, ptr poison)
  %.not36 = icmp eq i32 %23, 0
  %.pre = load ptr, ptr %11, align 8, !tbaa !8
  br i1 %.not36, label %.loopexit, label %24

24:                                               ; preds = %22
  %25 = getelementptr inbounds nuw i8, ptr %.pre, i64 16
  %26 = load ptr, ptr %25, align 8, !tbaa !9
  %27 = load ptr, ptr %9, align 8, !tbaa !18
  %28 = ptrtoint ptr %27 to i64
  %29 = ptrtoint ptr %12 to i64
  %30 = sub i64 %28, %29
  %31 = call i64 @BUF_MEM_grow(ptr noundef %26, i64 noundef %30) #6
  %.not37 = icmp eq i64 %31, 0
  br i1 %.not37, label %.loopexit.thread, label %32

32:                                               ; preds = %24
  %33 = load ptr, ptr %25, align 8, !tbaa !9
  %34 = getelementptr inbounds nuw i8, ptr %33, i64 8
  %35 = load ptr, ptr %34, align 8, !tbaa !15
  %36 = load ptr, ptr %9, align 8, !tbaa !18
  %37 = ptrtoint ptr %36 to i64
  %38 = sub i64 %37, %29
  call void @llvm.memcpy.p0.p0.i64(ptr align 1 %35, ptr align 1 %12, i64 %38, i1 false)
  %39 = load ptr, ptr %10, align 8, !tbaa !8
  %40 = call i32 @OPENSSL_sk_num(ptr noundef %39) #6
  %41 = icmp sgt i32 %40, 0
  br i1 %41, label %.lr.ph44, label %._crit_edge45

.lr.ph44:                                         ; preds = %32, %._crit_edge
  %.03142 = phi i32 [ %55, %._crit_edge ], [ 0, %32 ]
  %42 = load ptr, ptr %10, align 8, !tbaa !8
  %43 = call ptr @OPENSSL_sk_value(ptr noundef %42, i32 noundef %.03142) #6
  %44 = call i32 @OPENSSL_sk_num(ptr noundef %43) #6
  %45 = icmp sgt i32 %44, 0
  br i1 %45, label %.lr.ph, label %._crit_edge

.lr.ph:                                           ; preds = %.lr.ph44, %50
  %.03241 = phi i32 [ %52, %50 ], [ 0, %.lr.ph44 ]
  %46 = call ptr @OPENSSL_sk_value(ptr noundef %43, i32 noundef %.03241) #6
  %47 = getelementptr inbounds nuw i8, ptr %46, i64 16
  store i32 %.03142, ptr %47, align 8, !tbaa !26
  %48 = load ptr, ptr %.pre, align 8, !tbaa !21
  %49 = call i32 @OPENSSL_sk_push(ptr noundef %48, ptr noundef %46) #6
  %.not39 = icmp eq i32 %49, 0
  br i1 %.not39, label %.loopexit.thread, label %50

50:                                               ; preds = %.lr.ph
  %51 = call ptr @OPENSSL_sk_set(ptr noundef %43, i32 noundef %.03241, ptr noundef null) #6
  %52 = add nuw nsw i32 %.03241, 1
  %53 = call i32 @OPENSSL_sk_num(ptr noundef %43) #6
  %54 = icmp slt i32 %52, %53
  br i1 %54, label %.lr.ph, label %._crit_edge, !llvm.loop !30

._crit_edge:                                      ; preds = %50, %.lr.ph44
  %55 = add nuw nsw i32 %.03142, 1
  %56 = load ptr, ptr %10, align 8, !tbaa !8
  %57 = call i32 @OPENSSL_sk_num(ptr noundef %56) #6
  %58 = icmp slt i32 %55, %57
  br i1 %58, label %.lr.ph44, label %._crit_edge45, !llvm.loop !32

._crit_edge45:                                    ; preds = %._crit_edge, %32
  %59 = call fastcc i32 @x509_name_canon(ptr noundef %.pre)
  %.not38 = icmp eq i32 %59, 0
  br i1 %.not38, label %.loopexit, label %60

60:                                               ; preds = %._crit_edge45
  %61 = load ptr, ptr %10, align 8, !tbaa !8
  call void @OPENSSL_sk_pop_free(ptr noundef %61, ptr noundef nonnull @local_sk_X509_NAME_ENTRY_free) #6
  %62 = getelementptr inbounds nuw i8, ptr %.pre, i64 8
  store i32 0, ptr %62, align 8, !tbaa !22
  store ptr %.pre, ptr %0, align 8, !tbaa !23
  %63 = load ptr, ptr %9, align 8, !tbaa !18
  store ptr %63, ptr %1, align 8, !tbaa !18
  br label %66

.loopexit:                                        ; preds = %._crit_edge45, %22
  %.not40 = icmp eq ptr %.pre, null
  br i1 %.not40, label %64, label %.loopexit.thread

.loopexit.thread:                                 ; preds = %.lr.ph, %24, %.loopexit
  call void @ASN1_item_free(ptr noundef nonnull %.pre, ptr noundef nonnull @X509_NAME_it.local_it) #6
  br label %64

64:                                               ; preds = %.loopexit.thread, %.loopexit
  %65 = load ptr, ptr %10, align 8, !tbaa !8
  call void @OPENSSL_sk_pop_free(ptr noundef %65, ptr noundef nonnull @local_sk_X509_NAME_ENTRY_pop_free) #6
  call void @ERR_new() #6
  call void @ERR_set_debug(ptr noundef nonnull @.str.2, i32 noundef 210, ptr noundef nonnull @__func__.x509_name_ex_d2i) #6
  call void (i32, i32, ptr, ...) @ERR_set_error(i32 noundef 13, i32 noundef 524554, ptr noundef null) #6
  br label %66

66:                                               ; preds = %8, %64, %60
  %.0 = phi i32 [ 0, %64 ], [ 1, %60 ], [ %13, %8 ]
  call void @llvm.lifetime.end.p0(i64 8, ptr nonnull %11) #6
  call void @llvm.lifetime.end.p0(i64 8, ptr nonnull %10) #6
  call void @llvm.lifetime.end.p0(i64 8, ptr nonnull %9) #6
  ret i32 %.0
}